; Function Attrs: nounwind uwtable
define void @lv_display_trigger_activity(ptr noundef writeonly %0) local_unnamed_addr #0 {
  %.not = icmp eq ptr %0, null
  br i1 %.not, label %2, label %.thread

2:                                                ; preds = %1
  %3 = load ptr, ptr getelementptr inbounds nuw (i8, ptr @lv_global, i64 40), align 8, !tbaa !33
  %.not4 = icmp eq ptr %3, null
  br i1 %.not4, label %6, label %.thread

.thread:                                          ; preds = %1, %2
  %.07 = phi ptr [ %3, %2 ], [ %0, %1 ]
  %4 = tail call i32 @lv_tick_get() #13
  %5 = getelementptr inbounds nuw i8, ptr %.07, i64 912
  store i32 %4, ptr %5, align 8, !tbaa !32
  br label %6

6:                                                ; preds = %2, %.thread
  ret void
}